; Function Attrs: nounwind uwtable
define i64 @ossl_quic_get_accept_stream_queue_len(ptr noundef %0) local_unnamed_addr #0 {
  %2 = alloca %struct.qctx_st, align 8
  call void @llvm.lifetime.start.p0(i64 56, ptr nonnull %2) #12
  %3 = call fastcc range(i32 0, 2) i32 @expect_quic_as(ptr noundef %0, ptr noundef nonnull %2, i32 noundef 1)
  %.not = icmp eq i32 %3, 0
  br i1 %.not, label %15, label %4

4:                                                ; preds = %1
  %.val = load ptr, ptr %2, align 8, !tbaa !157
  %5 = getelementptr i8, ptr %.val, i64 88
  %.val.val = load ptr, ptr %5, align 8, !tbaa !143
  %6 = call ptr @ossl_quic_engine_get0_mutex(ptr noundef %.val.val) #12
  call void @ossl_crypto_mutex_lock(ptr noundef %6) #12
  %7 = getelementptr inbounds nuw i8, ptr %2, i64 24
  %8 = load ptr, ptr %7, align 8, !tbaa !134
  %9 = getelementptr inbounds nuw i8, ptr %8, i64 160
  %10 = load ptr, ptr %9, align 8, !tbaa !113
  %11 = call ptr @ossl_quic_channel_get_qsm(ptr noundef %10) #12
  %12 = call i64 @ossl_quic_stream_map_get_total_accept_queue_len(ptr noundef %11) #12
  %.val2 = load ptr, ptr %2, align 8, !tbaa !157
  %13 = getelementptr i8, ptr %.val2, i64 88
  %.val2.val = load ptr, ptr %13, align 8, !tbaa !143
  %14 = call ptr @ossl_quic_engine_get0_mutex(ptr noundef %.val2.val) #12
  call void @ossl_crypto_mutex_unlock(ptr noundef %14) #12
  br label %15

15:                                               ; preds = %1, %4
  %.0 = phi i64 [ %12, %4 ], [ 0, %1 ]
  call void @llvm.lifetime.end.p0(i64 56, ptr nonnull %2) #12
  ret i64 %.0
}